; Function Attrs: mustprogress nofree nosync nounwind memory(write, inaccessiblemem: none) uwtable
define noundef nonnull ptr @_ZN6google8protobuf22FastUInt64ToBufferLeftEmPc(i64 noundef %0, ptr noundef %1) local_unnamed_addr #18 personality ptr @__gxx_personality_v0 {
  %3 = icmp ult i64 %0, 4294967296
  br i1 %3, label %common.ret, label %6

common.ret:                                       ; preds = %2
  %4 = trunc nuw i64 %0 to i32
  %5 = tail call noundef ptr @_ZN6google8protobuf22FastUInt32ToBufferLeftEjPc(i32 noundef %4, ptr noundef %1)
  br label %common.ret56

common.ret56:                                     ; preds = %6, %common.ret
  %common.ret56.op = phi ptr [ %5, %common.ret ], [ %49, %6 ]
  ret ptr %common.ret56.op

6:                                                ; preds = %2
  %7 = udiv i64 %0, 1000000000
  %8 = tail call noundef ptr @_ZN6google8protobuf22FastUInt64ToBufferLeftEmPc(i64 noundef %7, ptr noundef %1)
  %.neg = mul i64 %7, 3294967296
  %9 = add i64 %.neg, %0
  %10 = trunc i64 %9 to i32
  %11 = udiv i32 %10, 10000000
  %12 = zext nneg i32 %11 to i64
  %13 = getelementptr inbounds nuw [100 x [2 x i8]], ptr @_ZN6google8protobufL16two_ASCII_digitsE, i64 0, i64 %12
  %14 = load i8, ptr %13, align 2, !tbaa !11
  store i8 %14, ptr %8, align 1, !tbaa !11
  %15 = getelementptr inbounds nuw i8, ptr %13, i64 1
  %16 = load i8, ptr %15, align 1, !tbaa !11
  %17 = getelementptr inbounds nuw i8, ptr %8, i64 1
  store i8 %16, ptr %17, align 1, !tbaa !11
  %18 = getelementptr inbounds nuw i8, ptr %8, i64 2
  %.neg52 = mul i32 %11, -10000000
  %19 = add i32 %.neg52, %10
  %20 = udiv i32 %19, 100000
  %21 = zext nneg i32 %20 to i64
  %22 = getelementptr inbounds nuw [100 x [2 x i8]], ptr @_ZN6google8protobufL16two_ASCII_digitsE, i64 0, i64 %21
  %23 = load i8, ptr %22, align 2, !tbaa !11
  store i8 %23, ptr %18, align 1, !tbaa !11
  %24 = getelementptr inbounds nuw i8, ptr %22, i64 1
  %25 = load i8, ptr %24, align 1, !tbaa !11
  %26 = getelementptr inbounds nuw i8, ptr %8, i64 3
  store i8 %25, ptr %26, align 1, !tbaa !11
  %27 = getelementptr inbounds nuw i8, ptr %8, i64 4
  %.neg53 = mul i32 %20, -100000
  %28 = add i32 %.neg53, %19
  %29 = udiv i32 %28, 1000
  %30 = zext nneg i32 %29 to i64
  %31 = getelementptr inbounds nuw [100 x [2 x i8]], ptr @_ZN6google8protobufL16two_ASCII_digitsE, i64 0, i64 %30
  %32 = load i8, ptr %31, align 2, !tbaa !11
  store i8 %32, ptr %27, align 1, !tbaa !11
  %33 = getelementptr inbounds nuw i8, ptr %31, i64 1
  %34 = load i8, ptr %33, align 1, !tbaa !11
  %35 = getelementptr inbounds nuw i8, ptr %8, i64 5
  store i8 %34, ptr %35, align 1, !tbaa !11
  %36 = getelementptr inbounds nuw i8, ptr %8, i64 6
  %.neg54 = mul i32 %29, -1000
  %37 = add i32 %.neg54, %28
  %38 = udiv i32 %37, 10
  %39 = zext nneg i32 %38 to i64
  %40 = getelementptr inbounds nuw [100 x [2 x i8]], ptr @_ZN6google8protobufL16two_ASCII_digitsE, i64 0, i64 %39
  %41 = load i8, ptr %40, align 2, !tbaa !11
  store i8 %41, ptr %36, align 1, !tbaa !11
  %42 = getelementptr inbounds nuw i8, ptr %40, i64 1
  %43 = load i8, ptr %42, align 1, !tbaa !11
  %44 = getelementptr inbounds nuw i8, ptr %8, i64 7
  store i8 %43, ptr %44, align 1, !tbaa !11
  %45 = getelementptr inbounds nuw i8, ptr %8, i64 8
  %.neg55 = mul i32 %38, 246
  %46 = add i32 %.neg55, %37
  %47 = trunc i32 %46 to i8
  %48 = add i8 %47, 48
  %49 = getelementptr inbounds nuw i8, ptr %8, i64 9
  store i8 %48, ptr %45, align 1, !tbaa !11
  store i8 0, ptr %49, align 1, !tbaa !11
  br label %common.ret56
}